; Function Attrs: mustprogress uwtable
define hidden noundef zeroext i1 @_ZNK12mpfx_manager15is_power_of_twoERK4mpfx(ptr noundef nonnull readonly align 8 captures(none) dereferenceable(85) %0, ptr noundef nonnull readonly align 4 captures(none) dereferenceable(4) %1) local_unnamed_addr #3 align 2 {
  %3 = getelementptr inbounds nuw i8, ptr %0, i64 16
  %4 = load ptr, ptr %3, align 8, !tbaa !3
  %5 = load i32, ptr %1, align 4
  %6 = lshr i32 %5, 1
  %7 = getelementptr inbounds nuw i8, ptr %0, i64 8
  %8 = load i32, ptr %7, align 8, !tbaa !19
  %9 = mul i32 %6, %8
  %10 = zext i32 %9 to i64
  %11 = getelementptr inbounds nuw i32, ptr %4, i64 %10
  %12 = getelementptr inbounds nuw i8, ptr %0, i64 4
  %13 = load i32, ptr %12, align 4, !tbaa !18
  %.not910.i.i = icmp eq i32 %13, 0
  br i1 %.not910.i.i, label %.loopexit.i, label %.lr.ph.preheader.i.i

.lr.ph.preheader.i.i:                             ; preds = %2
  %wide.trip.count.i.i = zext i32 %13 to i64
  br label %.lr.ph.i.i

14:                                               ; preds = %.lr.ph.i.i
  %indvars.iv.next.i.i = add nuw nsw i64 %indvars.iv.i.i, 1
  %exitcond.not.i.i = icmp eq i64 %indvars.iv.next.i.i, %wide.trip.count.i.i
  br i1 %exitcond.not.i.i, label %.loopexit.i, label %.lr.ph.i.i, !llvm.loop !39

.lr.ph.i.i:                                       ; preds = %14, %.lr.ph.preheader.i.i
  %indvars.iv.i.i = phi i64 [ 0, %.lr.ph.preheader.i.i ], [ %indvars.iv.next.i.i, %14 ]
  %15 = getelementptr inbounds nuw i32, ptr %11, i64 %indvars.iv.i.i
  %16 = load i32, ptr %15, align 4, !tbaa !22
  %.not.i.i = icmp eq i32 %16, 0
  br i1 %.not.i.i, label %14, label %_ZNK12mpfx_manager15is_power_of_twoERK4mpfxRj.exit

.loopexit.i:                                      ; preds = %14, %2
  %17 = icmp ult i32 %5, 2
  br i1 %17, label %_ZNK12mpfx_manager15is_power_of_twoERK4mpfxRj.exit, label %.preheader.i

.preheader.i:                                     ; preds = %.loopexit.i, %.preheader.i
  %indvars.iv.in.i = phi i32 [ %indvars.iv.i, %.preheader.i ], [ %8, %.loopexit.i ]
  %indvars.iv.i = add i32 %indvars.iv.in.i, -1
  %18 = zext i32 %indvars.iv.i to i64
  %19 = getelementptr inbounds nuw i32, ptr %11, i64 %18
  %20 = load i32, ptr %19, align 4, !tbaa !22
  %.not.i = icmp eq i32 %20, 0
  br i1 %.not.i, label %.preheader.i, label %21, !llvm.loop !79

21:                                               ; preds = %.preheader.i
  %22 = tail call range(i32 1, 33) i32 @llvm.ctpop.i32(i32 %20)
  %23 = icmp eq i32 %22, 1
  br i1 %23, label %24, label %_ZNK12mpfx_manager15is_power_of_twoERK4mpfxRj.exit

24:                                               ; preds = %21
  %25 = tail call noundef i32 @_Z4log2j(i32 noundef %20)
  %26 = load i32, ptr %12, align 4, !tbaa !18
  %27 = zext i32 %26 to i64
  br label %28

28:                                               ; preds = %29, %24
  %indvars.iv26.i = phi i64 [ %30, %29 ], [ %18, %24 ]
  %.not31.i.not.not = icmp ule i64 %indvars.iv26.i, %27
  br i1 %.not31.i.not.not, label %_ZNK12mpfx_manager15is_power_of_twoERK4mpfxRj.exit, label %29

29:                                               ; preds = %28
  %30 = add nsw i64 %indvars.iv26.i, -1
  %31 = getelementptr inbounds nuw i32, ptr %11, i64 %30
  %32 = load i32, ptr %31, align 4, !tbaa !22
  %.not20.i = icmp eq i32 %32, 0
  br i1 %.not20.i, label %28, label %_ZNK12mpfx_manager15is_power_of_twoERK4mpfxRj.exit, !llvm.loop !80

_ZNK12mpfx_manager15is_power_of_twoERK4mpfxRj.exit: ; preds = %.lr.ph.i.i, %28, %29, %.loopexit.i, %21
  %.017.i = phi i1 [ false, %.loopexit.i ], [ false, %21 ], [ %.not31.i.not.not, %29 ], [ %.not31.i.not.not, %28 ], [ false, %.lr.ph.i.i ]
  ret i1 %.017.i
}